target datalayout = "e-m:e-p270:32:32-p271:32:32-p272:64:64-i64:64-i128:128-f80:128-n8:16:32:64-S128"
target triple = "x86_64-pc-linux-gnu"

%struct.UConverterMBCSTable = type { i8, i8, i8, i32, ptr, ptr, ptr, ptr, ptr, ptr, [64 x i16], ptr, ptr, i32, i8, i8, i8, i16, i32, ptr, ptr, ptr, ptr }
%struct._MBCSToUFallback = type { i32, i32 }

; Function Attrs: mustprogress nounwind uwtable
define internal noundef i32 @_ZL20ucnv_MBCSGetFallbackP19UConverterMBCSTablej(ptr noundef %0, i32 noundef %1) #4 {
  %3 = alloca i32, align 4
  %4 = alloca ptr, align 8
  %5 = alloca i32, align 4
  %6 = alloca ptr, align 8
  %7 = alloca i32, align 4
  %8 = alloca i32, align 4
  %9 = alloca i32, align 4
  %10 = alloca i32, align 4
  store ptr %0, ptr %4, align 8, !tbaa !15
  store i32 %1, ptr %5, align 4, !tbaa !28
  call void @llvm.lifetime.start.p0(i64 8, ptr %6) #10
  call void @llvm.lifetime.start.p0(i64 4, ptr %7) #10
  call void @llvm.lifetime.start.p0(i64 4, ptr %8) #10
  call void @llvm.lifetime.start.p0(i64 4, ptr %9) #10
  %11 = load ptr, ptr %4, align 8, !tbaa !15
  %12 = getelementptr inbounds nuw %struct.UConverterMBCSTable, ptr %11, i32 0, i32 3
  %13 = load i32, ptr %12, align 4, !tbaa !96
  store i32 %13, ptr %9, align 4, !tbaa !28
  %14 = load i32, ptr %9, align 4, !tbaa !28
  %15 = icmp ugt i32 %14, 0
  br i1 %15, label %16, label %60

16:                                               ; preds = %2
  %17 = load ptr, ptr %4, align 8, !tbaa !15
  %18 = getelementptr inbounds nuw %struct.UConverterMBCSTable, ptr %17, i32 0, i32 7
  %19 = load ptr, ptr %18, align 8, !tbaa !97
  store ptr %19, ptr %6, align 8, !tbaa !14
  store i32 0, ptr %8, align 4, !tbaa !28
  br label %20

20:                                               ; preds = %42, %16
  %21 = load i32, ptr %8, align 4, !tbaa !28
  %22 = load i32, ptr %9, align 4, !tbaa !28
  %23 = sub i32 %22, 1
  %24 = icmp ult i32 %21, %23
  br i1 %24, label %25, label %43

25:                                               ; preds = %20
  %26 = load i32, ptr %8, align 4, !tbaa !28
  %27 = load i32, ptr %9, align 4, !tbaa !28
  %28 = add i32 %26, %27
  %29 = udiv i32 %28, 2
  store i32 %29, ptr %7, align 4, !tbaa !28
  %30 = load i32, ptr %5, align 4, !tbaa !28
  %31 = load ptr, ptr %6, align 8, !tbaa !14
  %32 = load i32, ptr %7, align 4, !tbaa !28
  %33 = zext i32 %32 to i64
  %34 = getelementptr inbounds nuw %struct._MBCSToUFallback, ptr %31, i64 %33
  %35 = getelementptr inbounds nuw %struct._MBCSToUFallback, ptr %34, i32 0, i32 0
  %36 = load i32, ptr %35, align 4, !tbaa !98
  %37 = icmp ult i32 %30, %36
  br i1 %37, label %38, label %40

38:                                               ; preds = %25
  %39 = load i32, ptr %7, align 4, !tbaa !28
  store i32 %39, ptr %9, align 4, !tbaa !28
  br label %42

40:                                               ; preds = %25
  %41 = load i32, ptr %7, align 4, !tbaa !28
  store i32 %41, ptr %8, align 4, !tbaa !28
  br label %42

42:                                               ; preds = %40, %38
  br label %20, !llvm.loop !100

43:                                               ; preds = %20
  %44 = load i32, ptr %5, align 4, !tbaa !28
  %45 = load ptr, ptr %6, align 8, !tbaa !14
  %46 = load i32, ptr %8, align 4, !tbaa !28
  %47 = zext i32 %46 to i64
  %48 = getelementptr inbounds nuw %struct._MBCSToUFallback, ptr %45, i64 %47
  %49 = getelementptr inbounds nuw %struct._MBCSToUFallback, ptr %48, i32 0, i32 0
  %50 = load i32, ptr %49, align 4, !tbaa !98
  %51 = icmp eq i32 %44, %50
  br i1 %51, label %52, label %59

52:                                               ; preds = %43
  %53 = load ptr, ptr %6, align 8, !tbaa !14
  %54 = load i32, ptr %8, align 4, !tbaa !28
  %55 = zext i32 %54 to i64
  %56 = getelementptr inbounds nuw %struct._MBCSToUFallback, ptr %53, i64 %55
  %57 = getelementptr inbounds nuw %struct._MBCSToUFallback, ptr %56, i32 0, i32 1
  %58 = load i32, ptr %57, align 4, !tbaa !101
  store i32 %58, ptr %3, align 4
  store i32 1, ptr %10, align 4
  br label %61

59:                                               ; preds = %43
  br label %60

60:                                               ; preds = %59, %2
  store i32 65534, ptr %3, align 4
  store i32 1, ptr %10, align 4
  br label %61

61:                                               ; preds = %60, %52
  call void @llvm.lifetime.end.p0(i64 4, ptr %9) #10
  call void @llvm.lifetime.end.p0(i64 4, ptr %8) #10
  call void @llvm.lifetime.end.p0(i64 4, ptr %7) #10
  call void @llvm.lifetime.end.p0(i64 8, ptr %6) #10
  %62 = load i32, ptr %3, align 4
  ret i32 %62
}