; Function Attrs: mustprogress nofree norecurse nosync nounwind willreturn memory(read, inaccessiblemem: none) uwtable
define internal fastcc noundef i32 @_ZL20ucnv_MBCSGetFallbackP19UConverterMBCSTablej(ptr noundef readonly captures(none) %0, i32 noundef %1) unnamed_addr #3 {
  %3 = getelementptr inbounds nuw i8, ptr %0, i64 4
  %4 = load i32, ptr %3, align 4, !tbaa !80
  %.not = icmp eq i32 %4, 0
  br i1 %.not, label %23, label %5

5:                                                ; preds = %2
  %6 = getelementptr inbounds nuw i8, ptr %0, i64 32
  %7 = load ptr, ptr %6, align 8, !tbaa !81
  %.not23 = icmp eq i32 %4, 1
  br i1 %.not23, label %._crit_edge, label %.lr.ph

.lr.ph:                                           ; preds = %5, %.lr.ph
  %.022 = phi i32 [ %..0, %.lr.ph ], [ %4, %5 ]
  %.01721 = phi i32 [ %.017., %.lr.ph ], [ 0, %5 ]
  %8 = add i32 %.022, %.01721
  %9 = lshr i32 %8, 1
  %10 = zext nneg i32 %9 to i64
  %11 = getelementptr inbounds nuw %struct._MBCSToUFallback, ptr %7, i64 %10
  %12 = load i32, ptr %11, align 4, !tbaa !82
  %13 = icmp ult i32 %1, %12
  %.017. = select i1 %13, i32 %.01721, i32 %9
  %..0 = select i1 %13, i32 %9, i32 %.022
  %14 = add i32 %..0, -1
  %15 = icmp ult i32 %.017., %14
  br i1 %15, label %.lr.ph, label %._crit_edge.loopexit, !llvm.loop !84

._crit_edge.loopexit:                             ; preds = %.lr.ph
  %16 = zext nneg i32 %.017. to i64
  br label %._crit_edge

._crit_edge:                                      ; preds = %._crit_edge.loopexit, %5
  %.017.lcssa = phi i64 [ 0, %5 ], [ %16, %._crit_edge.loopexit ]
  %17 = getelementptr inbounds nuw %struct._MBCSToUFallback, ptr %7, i64 %.017.lcssa
  %18 = load i32, ptr %17, align 4, !tbaa !82
  %19 = icmp eq i32 %1, %18
  br i1 %19, label %20, label %23

20:                                               ; preds = %._crit_edge
  %21 = getelementptr inbounds nuw i8, ptr %17, i64 4
  %22 = load i32, ptr %21, align 4, !tbaa !85
  br label %23

23:                                               ; preds = %2, %._crit_edge, %20
  %.019 = phi i32 [ %22, %20 ], [ 65534, %._crit_edge ], [ 65534, %2 ]
  ret i32 %.019
}